; Function Attrs: mustprogress nounwind uwtable
define void @_ZN6Assimp8ExporterD2Ev(ptr noundef nonnull readonly align 8 captures(none) dereferenceable(8) %0) unnamed_addr #0 align 2 personality ptr @__gxx_personality_v0 {
  %2 = load ptr, ptr %0, align 8
  %3 = load ptr, ptr %2, align 8
  %4 = icmp eq ptr %3, null
  br i1 %4, label %6, label %5

5:                                                ; preds = %1
  tail call void @_ZN16aiExportDataBlobD2Ev(ptr noundef nonnull align 8 dereferenceable(1056) %3) #31
  tail call void @_ZdlPvm(ptr noundef nonnull %3, i64 noundef 1056) #29
  %.pre.i = load ptr, ptr %0, align 8
  br label %6

6:                                                ; preds = %5, %1
  %7 = phi ptr [ %.pre.i, %5 ], [ %2, %1 ]
  store ptr null, ptr %7, align 8
  %8 = load ptr, ptr %0, align 8
  %9 = getelementptr inbounds nuw i8, ptr %8, i64 72
  %10 = getelementptr inbounds nuw i8, ptr %8, i64 80
  %11 = load i64, ptr %10, align 8
  %12 = invoke noundef nonnull align 8 dereferenceable(32) ptr @_ZNSt7__cxx1112basic_stringIcSt11char_traitsIcESaIcEE10_M_replaceEmmPKcm(ptr noundef nonnull align 8 dereferenceable(32) %9, i64 noundef 0, i64 noundef %11, ptr noundef nonnull @.str.2, i64 noundef 0)
          to label %_ZN6Assimp8Exporter8FreeBlobEv.exit unwind label %17

_ZN6Assimp8Exporter8FreeBlobEv.exit:              ; preds = %6
  %13 = load ptr, ptr %0, align 8
  %14 = icmp eq ptr %13, null
  br i1 %14, label %16, label %15

15:                                               ; preds = %_ZN6Assimp8Exporter8FreeBlobEv.exit
  tail call void @_ZN6Assimp13ExporterPimplD2Ev(ptr noundef nonnull align 8 dereferenceable(128) %13) #31
  tail call void @_ZdlPvm(ptr noundef nonnull %13, i64 noundef 128) #29
  br label %16

16:                                               ; preds = %15, %_ZN6Assimp8Exporter8FreeBlobEv.exit
  ret void

17:                                               ; preds = %6
  %18 = landingpad { ptr, i32 }
          catch ptr null
  %19 = extractvalue { ptr, i32 } %18, 0
  tail call void @__clang_call_terminate(ptr %19) #30
  unreachable
}